; Function Attrs: mustprogress uwtable
define internal noundef signext i8 @_ZL13udata_cleanupv() #1 personality ptr @__gxx_personality_v0 {
  %1 = load ptr, ptr @_ZL16gCommonDataCache, align 8, !tbaa !45
  %.not = icmp eq ptr %1, null
  br i1 %.not, label %3, label %2

2:                                                ; preds = %0
  tail call void @uhash_close_77(ptr noundef nonnull %1)
  store ptr null, ptr @_ZL16gCommonDataCache, align 8, !tbaa !45
  br label %3

3:                                                ; preds = %2, %0
  store atomic i32 0, ptr @_ZL24gCommonDataCacheInitOnce seq_cst, align 4
  br label %4

4:                                                ; preds = %3, %7
  %indvars.iv = phi i64 [ 0, %3 ], [ %indvars.iv.next, %7 ]
  %5 = getelementptr inbounds nuw [10 x ptr], ptr @_ZL19gCommonICUDataArray, i64 0, i64 %indvars.iv
  %6 = load ptr, ptr %5, align 8, !tbaa !30
  %.not7 = icmp eq ptr %6, null
  br i1 %.not7, label %.critedge, label %7

7:                                                ; preds = %4
  tail call void @udata_close_77(ptr noundef nonnull %6)
  store ptr null, ptr %5, align 8, !tbaa !30
  %indvars.iv.next = add nuw nsw i64 %indvars.iv, 1
  %exitcond.not = icmp eq i64 %indvars.iv.next, 10
  br i1 %exitcond.not, label %.critedge, label %4, !llvm.loop !47

.critedge:                                        ; preds = %7, %4
  store atomic i32 0, ptr @_ZL26gHaveTriedToLoadCommonData.0 seq_cst, align 4
  ret i8 1
}